; Function Attrs: mustprogress nofree norecurse nosync nounwind willreturn memory(read, argmem: none, inaccessiblemem: none) uwtable
define range(i32 -10000, 2147483647) i32 @Pa_GetDefaultHostApi() local_unnamed_addr #8 {
  %1 = load i32, ptr @initializationCount_, align 4
  %.not = icmp eq i32 %1, 0
  br i1 %.not, label %6, label %2

2:                                                ; preds = %0
  %3 = load i32, ptr @defaultHostApiIndex_, align 4
  %4 = icmp sgt i32 %3, -1
  %5 = load i32, ptr @hostApisCount_, align 4
  %.not4 = icmp slt i32 %3, %5
  %or.cond = select i1 %4, i1 %.not4, i1 false
  %spec.select = select i1 %or.cond, i32 %3, i32 -9986
  br label %6

6:                                                ; preds = %2, %0
  %.0 = phi i32 [ -10000, %0 ], [ %spec.select, %2 ]
  ret i32 %.0
}